target datalayout = "e-m:e-p270:32:32-p271:32:32-p272:64:64-i64:64-i128:128-f80:128-n8:16:32:64-S128"
target triple = "x86_64-pc-linux-gnu"

; Function Attrs: nounwind uwtable
define dso_local zeroext i1 @float_time_overflows(i32 noundef %0, i32 noundef %1, double noundef %2) #0 {
  %4 = alloca i1, align 1
  %5 = alloca i32, align 4
  %6 = alloca i32, align 4
  %7 = alloca double, align 8
  store i32 %0, ptr %5, align 4
  store i32 %1, ptr %6, align 4
  store double %2, ptr %7, align 8
  %8 = load i32, ptr %5, align 4
  %9 = icmp slt i32 %8, 0
  br i1 %9, label %19, label %10

10:                                               ; preds = %3
  %11 = load i32, ptr %5, align 4
  %12 = icmp sgt i32 %11, 24
  br i1 %12, label %19, label %13

13:                                               ; preds = %10
  %14 = load i32, ptr %6, align 4
  %15 = icmp slt i32 %14, 0
  br i1 %15, label %19, label %16

16:                                               ; preds = %13
  %17 = load i32, ptr %6, align 4
  %18 = icmp sge i32 %17, 60
  br i1 %18, label %19, label %20

19:                                               ; preds = %16, %13, %10, %3
  store i1 true, ptr %4, align 1
  br label %48

20:                                               ; preds = %16
  %21 = load double, ptr %7, align 8
  %22 = call i1 @llvm.is.fpclass.f64(double %21, i32 3)
  br i1 %22, label %23, label %24

23:                                               ; preds = %20
  store i1 true, ptr %4, align 1
  br label %48

24:                                               ; preds = %20
  %25 = load double, ptr %7, align 8
  %26 = fmul double %25, 1.000000e+06
  %27 = call double @llvm.rint.f64(double %26)
  store double %27, ptr %7, align 8
  %28 = load double, ptr %7, align 8
  %29 = fcmp olt double %28, 0.000000e+00
  br i1 %29, label %33, label %30

30:                                               ; preds = %24
  %31 = load double, ptr %7, align 8
  %32 = fcmp ogt double %31, 6.000000e+07
  br i1 %32, label %33, label %34

33:                                               ; preds = %30, %24
  store i1 true, ptr %4, align 1
  br label %48

34:                                               ; preds = %30
  %35 = load i32, ptr %5, align 4
  %36 = mul i32 %35, 60
  %37 = load i32, ptr %6, align 4
  %38 = add i32 %36, %37
  %39 = mul i32 %38, 60
  %40 = sext i32 %39 to i64
  %41 = mul i64 %40, 1000000
  %42 = load double, ptr %7, align 8
  %43 = fptosi double %42 to i64
  %44 = add i64 %41, %43
  %45 = icmp sgt i64 %44, 86400000000
  br i1 %45, label %46, label %47

46:                                               ; preds = %34
  store i1 true, ptr %4, align 1
  br label %48

47:                                               ; preds = %34
  store i1 false, ptr %4, align 1
  br label %48

48:                                               ; preds = %47, %46, %33, %23, %19
  %49 = load i1, ptr %4, align 1
  ret i1 %49
}