; Function Attrs: mustprogress nofree norecurse nosync nounwind willreturn memory(none) uwtable
define dso_local zeroext i1 @float_time_overflows(i32 noundef %0, i32 noundef %1, double noundef %2) local_unnamed_addr #7 {
  %or.cond = icmp ugt i32 %0, 24
  %4 = icmp ugt i32 %1, 59
  %or.cond5 = or i1 %or.cond, %4
  %5 = fcmp uno double %2, 0.000000e+00
  %or.cond21 = or i1 %or.cond5, %5
  br i1 %or.cond21, label %20, label %6

6:                                                ; preds = %3
  %7 = fmul double %2, 1.000000e+06
  %8 = tail call double @llvm.rint.f64(double %7)
  %9 = fcmp olt double %8, 0.000000e+00
  %10 = fcmp ogt double %8, 6.000000e+07
  %or.cond7 = or i1 %9, %10
  br i1 %or.cond7, label %20, label %11

11:                                               ; preds = %6
  %12 = mul nuw nsw i32 %0, 60
  %13 = add nuw nsw i32 %12, %1
  %14 = mul nuw nsw i32 %13, 60
  %15 = zext nneg i32 %14 to i64
  %16 = mul nuw nsw i64 %15, 1000000
  %17 = fptosi double %8 to i64
  %18 = add i64 %16, %17
  %19 = icmp sgt i64 %18, 86400000000
  br label %20

20:                                               ; preds = %11, %6, %3
  %.0 = phi i1 [ true, %3 ], [ true, %6 ], [ %19, %11 ]
  ret i1 %.0
}